target datalayout = "e-m:e-p270:32:32-p271:32:32-p272:64:64-i64:64-i128:128-f80:128-n8:16:32:64-S128"
target triple = "x86_64-pc-linux-gnu"

; Function Attrs: nounwind null_pointer_is_valid sspstrong uwtable
define internal void @set_rlc_seqnum_length_ext_li_field(i32 noundef %0, i8 noundef zeroext %1, ptr noundef %2, ptr noundef %3) #4 {
  %5 = alloca i32, align 4
  %6 = alloca i8, align 1
  %7 = alloca ptr, align 8
  %8 = alloca ptr, align 8
  store i32 %0, ptr %5, align 4
  store i8 %1, ptr %6, align 1
  store ptr %2, ptr %7, align 8
  store ptr %3, ptr %8, align 8
  %9 = load i32, ptr %5, align 4
  switch i32 %9, label %132 [
    i32 2, label %10
    i32 3, label %12
    i32 5, label %14
    i32 6, label %22
    i32 7, label %30
    i32 8, label %33
    i32 9, label %42
    i32 10, label %51
    i32 11, label %53
    i32 12, label %63
    i32 13, label %73
    i32 14, label %81
    i32 15, label %91
    i32 16, label %101
    i32 17, label %109
    i32 18, label %119
    i32 19, label %129
  ]

10:                                               ; preds = %4
  %11 = load ptr, ptr %7, align 8
  store i8 5, ptr %11, align 1
  br label %133

12:                                               ; preds = %4
  %13 = load ptr, ptr %7, align 8
  store i8 10, ptr %13, align 1
  br label %133

14:                                               ; preds = %4
  %15 = load ptr, ptr %7, align 8
  store i8 10, ptr %15, align 1
  %16 = load i8, ptr %6, align 1
  %17 = zext i8 %16 to i32
  %18 = icmp eq i32 %17, 0
  br i1 %18, label %19, label %21

19:                                               ; preds = %14
  %20 = load ptr, ptr %8, align 8
  store i8 1, ptr %20, align 1
  br label %21

21:                                               ; preds = %19, %14
  br label %133

22:                                               ; preds = %4
  %23 = load ptr, ptr %7, align 8
  store i8 10, ptr %23, align 1
  %24 = load i8, ptr %6, align 1
  %25 = zext i8 %24 to i32
  %26 = icmp eq i32 %25, 1
  br i1 %26, label %27, label %29

27:                                               ; preds = %22
  %28 = load ptr, ptr %8, align 8
  store i8 1, ptr %28, align 1
  br label %29

29:                                               ; preds = %27, %22
  br label %133

30:                                               ; preds = %4
  %31 = load ptr, ptr %7, align 8
  store i8 10, ptr %31, align 1
  %32 = load ptr, ptr %8, align 8
  store i8 1, ptr %32, align 1
  br label %133

33:                                               ; preds = %4
  %34 = load i8, ptr %6, align 1
  %35 = zext i8 %34 to i32
  %36 = icmp eq i32 %35, 0
  br i1 %36, label %37, label %39

37:                                               ; preds = %33
  %38 = load ptr, ptr %7, align 8
  store i8 16, ptr %38, align 1
  br label %41

39:                                               ; preds = %33
  %40 = load ptr, ptr %7, align 8
  store i8 10, ptr %40, align 1
  br label %41

41:                                               ; preds = %39, %37
  br label %133

42:                                               ; preds = %4
  %43 = load i8, ptr %6, align 1
  %44 = zext i8 %43 to i32
  %45 = icmp eq i32 %44, 0
  br i1 %45, label %46, label %48

46:                                               ; preds = %42
  %47 = load ptr, ptr %7, align 8
  store i8 10, ptr %47, align 1
  br label %50

48:                                               ; preds = %42
  %49 = load ptr, ptr %7, align 8
  store i8 16, ptr %49, align 1
  br label %50

50:                                               ; preds = %48, %46
  br label %133

51:                                               ; preds = %4
  %52 = load ptr, ptr %7, align 8
  store i8 16, ptr %52, align 1
  br label %133

53:                                               ; preds = %4
  %54 = load i8, ptr %6, align 1
  %55 = zext i8 %54 to i32
  %56 = icmp eq i32 %55, 0
  br i1 %56, label %57, label %60

57:                                               ; preds = %53
  %58 = load ptr, ptr %7, align 8
  store i8 16, ptr %58, align 1
  %59 = load ptr, ptr %8, align 8
  store i8 1, ptr %59, align 1
  br label %62

60:                                               ; preds = %53
  %61 = load ptr, ptr %7, align 8
  store i8 10, ptr %61, align 1
  br label %62

62:                                               ; preds = %60, %57
  br label %133

63:                                               ; preds = %4
  %64 = load i8, ptr %6, align 1
  %65 = zext i8 %64 to i32
  %66 = icmp eq i32 %65, 0
  br i1 %66, label %67, label %70

67:                                               ; preds = %63
  %68 = load ptr, ptr %7, align 8
  store i8 10, ptr %68, align 1
  %69 = load ptr, ptr %8, align 8
  store i8 1, ptr %69, align 1
  br label %72

70:                                               ; preds = %63
  %71 = load ptr, ptr %7, align 8
  store i8 16, ptr %71, align 1
  br label %72

72:                                               ; preds = %70, %67
  br label %133

73:                                               ; preds = %4
  %74 = load ptr, ptr %7, align 8
  store i8 16, ptr %74, align 1
  %75 = load i8, ptr %6, align 1
  %76 = zext i8 %75 to i32
  %77 = icmp eq i32 %76, 0
  br i1 %77, label %78, label %80

78:                                               ; preds = %73
  %79 = load ptr, ptr %8, align 8
  store i8 1, ptr %79, align 1
  br label %80

80:                                               ; preds = %78, %73
  br label %133

81:                                               ; preds = %4
  %82 = load i8, ptr %6, align 1
  %83 = zext i8 %82 to i32
  %84 = icmp eq i32 %83, 0
  br i1 %84, label %85, label %87

85:                                               ; preds = %81
  %86 = load ptr, ptr %7, align 8
  store i8 16, ptr %86, align 1
  br label %90

87:                                               ; preds = %81
  %88 = load ptr, ptr %7, align 8
  store i8 10, ptr %88, align 1
  %89 = load ptr, ptr %8, align 8
  store i8 1, ptr %89, align 1
  br label %90

90:                                               ; preds = %87, %85
  br label %133

91:                                               ; preds = %4
  %92 = load i8, ptr %6, align 1
  %93 = zext i8 %92 to i32
  %94 = icmp eq i32 %93, 0
  br i1 %94, label %95, label %97

95:                                               ; preds = %91
  %96 = load ptr, ptr %7, align 8
  store i8 10, ptr %96, align 1
  br label %100

97:                                               ; preds = %91
  %98 = load ptr, ptr %7, align 8
  store i8 16, ptr %98, align 1
  %99 = load ptr, ptr %8, align 8
  store i8 1, ptr %99, align 1
  br label %100

100:                                              ; preds = %97, %95
  br label %133

101:                                              ; preds = %4
  %102 = load ptr, ptr %7, align 8
  store i8 16, ptr %102, align 1
  %103 = load i8, ptr %6, align 1
  %104 = zext i8 %103 to i32
  %105 = icmp eq i32 %104, 1
  br i1 %105, label %106, label %108

106:                                              ; preds = %101
  %107 = load ptr, ptr %8, align 8
  store i8 1, ptr %107, align 1
  br label %108

108:                                              ; preds = %106, %101
  br label %133

109:                                              ; preds = %4
  %110 = load i8, ptr %6, align 1
  %111 = zext i8 %110 to i32
  %112 = icmp eq i32 %111, 0
  br i1 %112, label %113, label %115

113:                                              ; preds = %109
  %114 = load ptr, ptr %7, align 8
  store i8 16, ptr %114, align 1
  br label %117

115:                                              ; preds = %109
  %116 = load ptr, ptr %7, align 8
  store i8 10, ptr %116, align 1
  br label %117

117:                                              ; preds = %115, %113
  %118 = load ptr, ptr %8, align 8
  store i8 1, ptr %118, align 1
  br label %133

119:                                              ; preds = %4
  %120 = load i8, ptr %6, align 1
  %121 = zext i8 %120 to i32
  %122 = icmp eq i32 %121, 0
  br i1 %122, label %123, label %125

123:                                              ; preds = %119
  %124 = load ptr, ptr %7, align 8
  store i8 10, ptr %124, align 1
  br label %127

125:                                              ; preds = %119
  %126 = load ptr, ptr %7, align 8
  store i8 16, ptr %126, align 1
  br label %127

127:                                              ; preds = %125, %123
  %128 = load ptr, ptr %8, align 8
  store i8 1, ptr %128, align 1
  br label %133

129:                                              ; preds = %4
  %130 = load ptr, ptr %7, align 8
  store i8 16, ptr %130, align 1
  %131 = load ptr, ptr %8, align 8
  store i8 1, ptr %131, align 1
  br label %133

132:                                              ; preds = %4
  br label %133

133:                                              ; preds = %132, %129, %127, %117, %108, %100, %90, %80, %72, %62, %51, %50, %41, %30, %29, %21, %12, %10
  ret void
}