; Function Attrs: mustprogress nofree norecurse nosync nounwind null_pointer_is_valid sspstrong willreturn memory(argmem: write) uwtable
define internal fastcc void @set_rlc_seqnum_length_ext_li_field(i32 noundef %0, i8 noundef zeroext %1, ptr noundef writeonly captures(none) %2, ptr noundef writeonly captures(none) %3) unnamed_addr #12 {
  switch i32 %0, label %50 [
    i32 2, label %5
    i32 3, label %6
    i32 5, label %7
    i32 6, label %10
    i32 7, label %13
    i32 8, label %14
    i32 9, label %18
    i32 10, label %22
    i32 11, label %23
    i32 12, label %27
    i32 13, label %31
    i32 14, label %34
    i32 15, label %38
    i32 16, label %42
    i32 17, label %45
    i32 18, label %47
    i32 19, label %49
  ]

5:                                                ; preds = %4
  store i8 5, ptr %2, align 1
  br label %50

6:                                                ; preds = %4
  store i8 10, ptr %2, align 1
  br label %50

7:                                                ; preds = %4
  store i8 10, ptr %2, align 1
  %8 = icmp eq i8 %1, 0
  br i1 %8, label %9, label %50

9:                                                ; preds = %7
  store i8 1, ptr %3, align 1
  br label %50

10:                                               ; preds = %4
  store i8 10, ptr %2, align 1
  %11 = icmp eq i8 %1, 1
  br i1 %11, label %12, label %50

12:                                               ; preds = %10
  store i8 1, ptr %3, align 1
  br label %50

13:                                               ; preds = %4
  store i8 10, ptr %2, align 1
  store i8 1, ptr %3, align 1
  br label %50

14:                                               ; preds = %4
  %15 = icmp eq i8 %1, 0
  br i1 %15, label %16, label %17

16:                                               ; preds = %14
  store i8 16, ptr %2, align 1
  br label %50

17:                                               ; preds = %14
  store i8 10, ptr %2, align 1
  br label %50

18:                                               ; preds = %4
  %19 = icmp eq i8 %1, 0
  br i1 %19, label %20, label %21

20:                                               ; preds = %18
  store i8 10, ptr %2, align 1
  br label %50

21:                                               ; preds = %18
  store i8 16, ptr %2, align 1
  br label %50

22:                                               ; preds = %4
  store i8 16, ptr %2, align 1
  br label %50

23:                                               ; preds = %4
  %24 = icmp eq i8 %1, 0
  br i1 %24, label %25, label %26

25:                                               ; preds = %23
  store i8 16, ptr %2, align 1
  store i8 1, ptr %3, align 1
  br label %50

26:                                               ; preds = %23
  store i8 10, ptr %2, align 1
  br label %50

27:                                               ; preds = %4
  %28 = icmp eq i8 %1, 0
  br i1 %28, label %29, label %30

29:                                               ; preds = %27
  store i8 10, ptr %2, align 1
  store i8 1, ptr %3, align 1
  br label %50

30:                                               ; preds = %27
  store i8 16, ptr %2, align 1
  br label %50

31:                                               ; preds = %4
  store i8 16, ptr %2, align 1
  %32 = icmp eq i8 %1, 0
  br i1 %32, label %33, label %50

33:                                               ; preds = %31
  store i8 1, ptr %3, align 1
  br label %50

34:                                               ; preds = %4
  %35 = icmp eq i8 %1, 0
  br i1 %35, label %36, label %37

36:                                               ; preds = %34
  store i8 16, ptr %2, align 1
  br label %50

37:                                               ; preds = %34
  store i8 10, ptr %2, align 1
  store i8 1, ptr %3, align 1
  br label %50

38:                                               ; preds = %4
  %39 = icmp eq i8 %1, 0
  br i1 %39, label %40, label %41

40:                                               ; preds = %38
  store i8 10, ptr %2, align 1
  br label %50

41:                                               ; preds = %38
  store i8 16, ptr %2, align 1
  store i8 1, ptr %3, align 1
  br label %50

42:                                               ; preds = %4
  store i8 16, ptr %2, align 1
  %43 = icmp eq i8 %1, 1
  br i1 %43, label %44, label %50

44:                                               ; preds = %42
  store i8 1, ptr %3, align 1
  br label %50

45:                                               ; preds = %4
  %46 = icmp eq i8 %1, 0
  %. = select i1 %46, i8 16, i8 10
  store i8 %., ptr %2, align 1
  store i8 1, ptr %3, align 1
  br label %50

47:                                               ; preds = %4
  %48 = icmp eq i8 %1, 0
  %.50 = select i1 %48, i8 10, i8 16
  store i8 %.50, ptr %2, align 1
  store i8 1, ptr %3, align 1
  br label %50

49:                                               ; preds = %4
  store i8 16, ptr %2, align 1
  store i8 1, ptr %3, align 1
  br label %50

50:                                               ; preds = %4, %42, %44, %40, %41, %36, %37, %31, %33, %29, %30, %25, %26, %20, %21, %16, %17, %10, %12, %7, %9, %49, %47, %45, %22, %13, %6, %5
  ret void
}